target datalayout = "e-m:e-p270:32:32-p271:32:32-p272:64:64-i64:64-i128:128-f80:128-n8:16:32:64-S128"
target triple = "x86_64-unknown-linux-gnu"

%"class.icu_75::Locale" = type <{ %"class.icu_75::UObject", [12 x i8], [6 x i8], [4 x i8], [2 x i8], i32, [4 x i8], ptr, [157 x i8], [3 x i8], ptr, i8, [7 x i8] }>
%"class.icu_75::UObject" = type { ptr }
%"class.icu_75::Locale::Iterator" = type { ptr }
%"class.(anonymous namespace)::LocaleFromTag" = type { %"class.icu_75::Locale" }
%"class.icu_75::Locale::ConvertingIterator" = type { %"class.icu_75::Locale::Iterator", ptr, ptr, %"class.(anonymous namespace)::LocaleFromTag" }

@_ZTVN6icu_756Locale8IteratorE = external unnamed_addr constant { [6 x ptr] }, align 8

; Function Attrs: mustprogress nounwind uwtable
define linkonce_odr void @_ZN6icu_756Locale8IteratorC2Ev(ptr noundef nonnull align 8 dereferenceable(8) %this) unnamed_addr #0 comdat align 2 {
entry:
  %this.addr = alloca ptr, align 8
  store ptr %this, ptr %this.addr, align 8
  %this1 = load ptr, ptr %this.addr, align 8
  store ptr getelementptr inbounds ({ [6 x ptr] }, ptr @_ZTVN6icu_756Locale8IteratorE, i32 0, i32 0, i32 2), ptr %this1, align 8
  ret void
}

; Function Attrs: mustprogress nounwind uwtable
define internal void @_ZN6icu_756Locale18ConvertingIteratorIPPKcN12_GLOBAL__N_113LocaleFromTagEED2Ev(ptr noundef nonnull align 8 dereferenceable(248) %this) unnamed_addr #0 align 2 {
entry:
  %this.addr = alloca ptr, align 8
  store ptr %this, ptr %this.addr, align 8
  %this1 = load ptr, ptr %this.addr, align 8
  store ptr getelementptr inbounds ({ [6 x ptr] }, ptr @_ZTVN6icu_756Locale18ConvertingIteratorIPPKcN12_GLOBAL__N_113LocaleFromTagEEE, i32 0, i32 0, i32 2), ptr %this1, align 8
  %converter_ = getelementptr inbounds %"class.icu_75::Locale::ConvertingIterator", ptr %this1, i32 0, i32 3
  call void @_ZN12_GLOBAL__N_113LocaleFromTagD2Ev(ptr noundef nonnull align 8 dereferenceable(224) %converter_) #11
  call void @_ZN6icu_756Locale8IteratorD2Ev(ptr noundef nonnull align 8 dereferenceable(8) %this1) #11
  ret void
}

; Function Attrs: mustprogress nounwind uwtable
define internal void @_ZN12_GLOBAL__N_113LocaleFromTagD2Ev(ptr noundef nonnull align 8 dereferenceable(224) %this) unnamed_addr #0 align 2 {
entry:
  %this.addr = alloca ptr, align 8
  store ptr %this, ptr %this.addr, align 8
  %this1 = load ptr, ptr %this.addr, align 8
  %locale = getelementptr inbounds %"class.(anonymous namespace)::LocaleFromTag", ptr %this1, i32 0, i32 0
  call void @_ZN6icu_756LocaleD1Ev(ptr noundef nonnull align 8 dereferenceable(217) %locale) #11
  ret void
}

; Function Attrs: mustprogress uwtable
define internal void @_ZN6icu_756Locale18ConvertingIteratorIPPKcN12_GLOBAL__N_113LocaleFromTagEEC2ES4_S4_S6_(ptr noundef nonnull align 8 dereferenceable(248) %this, ptr noundef %begin, ptr noundef %end, ptr noundef %converter) unnamed_addr #1 align 2 personality ptr @__gxx_personality_v0 {
entry:
  %this.addr = alloca ptr, align 8
  %begin.addr = alloca ptr, align 8
  %end.addr = alloca ptr, align 8
  %converter.indirect_addr = alloca ptr, align 8
  %exn.slot = alloca ptr, align 8
  %ehselector.slot = alloca i32, align 4
  store ptr %this, ptr %this.addr, align 8
  store ptr %begin, ptr %begin.addr, align 8
  store ptr %end, ptr %end.addr, align 8
  store ptr %converter, ptr %converter.indirect_addr, align 8
  %this1 = load ptr, ptr %this.addr, align 8
  call void @_ZN6icu_756Locale8IteratorC2Ev(ptr noundef nonnull align 8 dereferenceable(8) %this1) #11
  store ptr getelementptr inbounds ({ [6 x ptr] }, ptr @_ZTVN6icu_756Locale18ConvertingIteratorIPPKcN12_GLOBAL__N_113LocaleFromTagEEE, i32 0, i32 0, i32 2), ptr %this1, align 8
  %it_ = getelementptr inbounds %"class.icu_75::Locale::ConvertingIterator", ptr %this1, i32 0, i32 1
  %0 = load ptr, ptr %begin.addr, align 8
  store ptr %0, ptr %it_, align 8
  %end_ = getelementptr inbounds %"class.icu_75::Locale::ConvertingIterator", ptr %this1, i32 0, i32 2
  %1 = load ptr, ptr %end.addr, align 8
  store ptr %1, ptr %end_, align 8
  %converter_ = getelementptr inbounds %"class.icu_75::Locale::ConvertingIterator", ptr %this1, i32 0, i32 3
  invoke void @_ZN12_GLOBAL__N_113LocaleFromTagC2ERKS0_(ptr noundef nonnull align 8 dereferenceable(224) %converter_, ptr noundef nonnull align 8 dereferenceable(224) %converter)
          to label %invoke.cont unwind label %lpad

invoke.cont:                                      ; preds = %entry
  ret void

lpad:                                             ; preds = %entry
  %2 = landingpad { ptr, i32 }
          cleanup
  %3 = extractvalue { ptr, i32 } %2, 0
  store ptr %3, ptr %exn.slot, align 8
  %4 = extractvalue { ptr, i32 } %2, 1
  store i32 %4, ptr %ehselector.slot, align 4
  call void @_ZN6icu_756Locale8IteratorD2Ev(ptr noundef nonnull align 8 dereferenceable(8) %this1) #11
  br label %eh.resume

eh.resume:                                        ; preds = %lpad
  %exn = load ptr, ptr %exn.slot, align 8
  %sel = load i32, ptr %ehselector.slot, align 4
  %lpad.val = insertvalue { ptr, i32 } poison, ptr %exn, 0
  %lpad.val2 = insertvalue { ptr, i32 } %lpad.val, i32 %sel, 1
  resume { ptr, i32 } %lpad.val2
}

; Function Attrs: mustprogress uwtable
define internal void @_ZN12_GLOBAL__N_113LocaleFromTagC2ERKS0_(ptr noundef nonnull align 8 dereferenceable(224) %this, ptr noundef nonnull align 8 dereferenceable(224) %0) unnamed_addr #1 align 2 {
entry:
  %this.addr = alloca ptr, align 8
  %.addr = alloca ptr, align 8
  store ptr %this, ptr %this.addr, align 8
  store ptr %0, ptr %.addr, align 8
  %this1 = load ptr, ptr %this.addr, align 8
  %locale = getelementptr inbounds %"class.(anonymous namespace)::LocaleFromTag", ptr %this1, i32 0, i32 0
  %1 = load ptr, ptr %.addr, align 8
  %locale2 = getelementptr inbounds %"class.(anonymous namespace)::LocaleFromTag", ptr %1, i32 0, i32 0
  call void @_ZN6icu_756LocaleC1ERKS0_(ptr noundef nonnull align 8 dereferenceable(217) %locale, ptr noundef nonnull align 8 dereferenceable(217) %locale2)
  ret void
}

; Function Attrs: mustprogress uwtable
define internal void @_ZN12_GLOBAL__N_113LocaleFromTagC2Ev(ptr noundef nonnull align 8 dereferenceable(224) %this) unnamed_addr #1 align 2 {
entry:
  %this.addr = alloca ptr, align 8
  store ptr %this, ptr %this.addr, align 8
  %this1 = load ptr, ptr %this.addr, align 8
  %locale = getelementptr inbounds %"class.(anonymous namespace)::LocaleFromTag", ptr %this1, i32 0, i32 0
  %call = call noundef nonnull align 8 dereferenceable(217) ptr @_ZN6icu_756Locale7getRootEv()
  call void @_ZN6icu_756LocaleC1ERKS0_(ptr noundef nonnull align 8 dereferenceable(217) %locale, ptr noundef nonnull align 8 dereferenceable(217) %call)
  ret void
}

; Function Attrs: mustprogress nounwind uwtable
define internal noundef signext i8 @_ZL9U_FAILURE10UErrorCode(i32 noundef %code) #0 {
entry:
  %code.addr = alloca i32, align 4
  store i32 %code, ptr %code.addr, align 4
  %0 = load i32, ptr %code.addr, align 4
  %cmp = icmp sgt i32 %0, 0
  %conv = zext i1 %cmp to i8
  ret i8 %conv
}

; Function Attrs: mustprogress uwtable
define i32 @uloc_acceptLanguage_75(ptr noundef %result, i32 noundef %resultAvailable, ptr noundef %outResult, ptr noundef %acceptList, i32 noundef %acceptListCount, ptr noundef %availableLocales, ptr noundef %status) #1 personality ptr @__gxx_personality_v0 {
entry:
  %retval = alloca i32, align 4
  %result.addr = alloca ptr, align 8
  %resultAvailable.addr = alloca i32, align 4
  %outResult.addr = alloca ptr, align 8
  %acceptList.addr = alloca ptr, align 8
  %acceptListCount.addr = alloca i32, align 4
  %availableLocales.addr = alloca ptr, align 8
  %status.addr = alloca ptr, align 8
  %converter = alloca %"class.(anonymous namespace)::LocaleFromTag", align 8
  %desiredLocales = alloca %"class.icu_75::Locale::ConvertingIterator", align 8
  %agg.tmp = alloca %"class.(anonymous namespace)::LocaleFromTag", align 8
  %exn.slot = alloca ptr, align 8
  %ehselector.slot = alloca i32, align 4
  store ptr %result, ptr %result.addr, align 8
  store i32 %resultAvailable, ptr %resultAvailable.addr, align 4
  store ptr %outResult, ptr %outResult.addr, align 8
  store ptr %acceptList, ptr %acceptList.addr, align 8
  store i32 %acceptListCount, ptr %acceptListCount.addr, align 4
  store ptr %availableLocales, ptr %availableLocales.addr, align 8
  store ptr %status, ptr %status.addr, align 8
  %0 = load ptr, ptr %status.addr, align 8
  %1 = load i32, ptr %0, align 4
  %call = call noundef signext i8 @_ZL9U_FAILURE10UErrorCode(i32 noundef %1)
  %tobool = icmp ne i8 %call, 0
  br i1 %tobool, label %if.then, label %if.end

if.then:                                          ; preds = %entry
  store i32 0, ptr %retval, align 4
  br label %return

if.end:                                           ; preds = %entry
  %2 = load ptr, ptr %result.addr, align 8
  %cmp = icmp eq ptr %2, null
  br i1 %cmp, label %cond.true, label %cond.false

cond.true:                                        ; preds = %if.end
  %3 = load i32, ptr %resultAvailable.addr, align 4
  %cmp1 = icmp ne i32 %3, 0
  br i1 %cmp1, label %if.then10, label %lor.lhs.false

cond.false:                                       ; preds = %if.end
  %4 = load i32, ptr %resultAvailable.addr, align 4
  %cmp2 = icmp slt i32 %4, 0
  br i1 %cmp2, label %if.then10, label %lor.lhs.false

lor.lhs.false:                                    ; preds = %cond.false, %cond.true
  %5 = load ptr, ptr %acceptList.addr, align 8
  %cmp3 = icmp eq ptr %5, null
  br i1 %cmp3, label %cond.true4, label %cond.false6

cond.true4:                                       ; preds = %lor.lhs.false
  %6 = load i32, ptr %acceptListCount.addr, align 4
  %cmp5 = icmp ne i32 %6, 0
  br i1 %cmp5, label %if.then10, label %lor.lhs.false8

cond.false6:                                      ; preds = %lor.lhs.false
  %7 = load i32, ptr %acceptListCount.addr, align 4
  %cmp7 = icmp slt i32 %7, 0
  br i1 %cmp7, label %if.then10, label %lor.lhs.false8

lor.lhs.false8:                                   ; preds = %cond.false6, %cond.true4
  %8 = load ptr, ptr %availableLocales.addr, align 8
  %cmp9 = icmp eq ptr %8, null
  br i1 %cmp9, label %if.then10, label %if.end11

if.then10:                                        ; preds = %lor.lhs.false8, %cond.false6, %cond.true4, %cond.false, %cond.true
  %9 = load ptr, ptr %status.addr, align 8
  store i32 1, ptr %9, align 4
  store i32 0, ptr %retval, align 4
  br label %return

if.end11:                                         ; preds = %lor.lhs.false8
  call void @_ZN12_GLOBAL__N_113LocaleFromTagC2Ev(ptr noundef nonnull align 8 dereferenceable(224) %converter)
  %10 = load ptr, ptr %acceptList.addr, align 8
  %11 = load ptr, ptr %acceptList.addr, align 8
  %12 = load i32, ptr %acceptListCount.addr, align 4
  %idx.ext = sext i32 %12 to i64
  %add.ptr = getelementptr inbounds ptr, ptr %11, i64 %idx.ext
  invoke void @_ZN12_GLOBAL__N_113LocaleFromTagC2ERKS0_(ptr noundef nonnull align 8 dereferenceable(224) %agg.tmp, ptr noundef nonnull align 8 dereferenceable(224) %converter)
          to label %invoke.cont unwind label %lpad

invoke.cont:                                      ; preds = %if.end11
  invoke void @_ZN6icu_756Locale18ConvertingIteratorIPPKcN12_GLOBAL__N_113LocaleFromTagEEC2ES4_S4_S6_(ptr noundef nonnull align 8 dereferenceable(248) %desiredLocales, ptr noundef %10, ptr noundef %add.ptr, ptr noundef %agg.tmp)
          to label %invoke.cont13 unwind label %lpad12

invoke.cont13:                                    ; preds = %invoke.cont
  call void @_ZN12_GLOBAL__N_113LocaleFromTagD2Ev(ptr noundef nonnull align 8 dereferenceable(224) %agg.tmp) #11
  %13 = load ptr, ptr %availableLocales.addr, align 8
  %14 = load ptr, ptr %result.addr, align 8
  %15 = load i32, ptr %resultAvailable.addr, align 4
  %16 = load ptr, ptr %outResult.addr, align 8
  %17 = load ptr, ptr %status.addr, align 8
  %call16 = invoke noundef i32 @_ZN12_GLOBAL__N_114acceptLanguageER12UEnumerationRN6icu_756Locale8IteratorEPciP13UAcceptResultR10UErrorCode(ptr noundef nonnull align 1 %13, ptr noundef nonnull align 8 dereferenceable(8) %desiredLocales, ptr noundef %14, i32 noundef %15, ptr noundef %16, ptr noundef nonnull align 4 dereferenceable(4) %17)
          to label %invoke.cont15 unwind label %lpad14

invoke.cont15:                                    ; preds = %invoke.cont13
  store i32 %call16, ptr %retval, align 4
  call void @_ZN6icu_756Locale18ConvertingIteratorIPPKcN12_GLOBAL__N_113LocaleFromTagEED2Ev(ptr noundef nonnull align 8 dereferenceable(248) %desiredLocales) #11
  call void @_ZN12_GLOBAL__N_113LocaleFromTagD2Ev(ptr noundef nonnull align 8 dereferenceable(224) %converter) #11
  br label %return

lpad:                                             ; preds = %if.end11
  %18 = landingpad { ptr, i32 }
          cleanup
  %19 = extractvalue { ptr, i32 } %18, 0
  store ptr %19, ptr %exn.slot, align 8
  %20 = extractvalue { ptr, i32 } %18, 1
  store i32 %20, ptr %ehselector.slot, align 4
  br label %ehcleanup

lpad12:                                           ; preds = %invoke.cont
  %21 = landingpad { ptr, i32 }
          cleanup
  %22 = extractvalue { ptr, i32 } %21, 0
  store ptr %22, ptr %exn.slot, align 8
  %23 = extractvalue { ptr, i32 } %21, 1
  store i32 %23, ptr %ehselector.slot, align 4
  call void @_ZN12_GLOBAL__N_113LocaleFromTagD2Ev(ptr noundef nonnull align 8 dereferenceable(224) %agg.tmp) #11
  br label %ehcleanup

lpad14:                                           ; preds = %invoke.cont13
  %24 = landingpad { ptr, i32 }
          cleanup
  %25 = extractvalue { ptr, i32 } %24, 0
  store ptr %25, ptr %exn.slot, align 8
  %26 = extractvalue { ptr, i32 } %24, 1
  store i32 %26, ptr %ehselector.slot, align 4
  call void @_ZN6icu_756Locale18ConvertingIteratorIPPKcN12_GLOBAL__N_113LocaleFromTagEED2Ev(ptr noundef nonnull align 8 dereferenceable(248) %desiredLocales) #11
  br label %ehcleanup

ehcleanup:                                        ; preds = %lpad14, %lpad12, %lpad
  call void @_ZN12_GLOBAL__N_113LocaleFromTagD2Ev(ptr noundef nonnull align 8 dereferenceable(224) %converter) #11
  br label %eh.resume

return:                                           ; preds = %invoke.cont15, %if.then10, %if.then
  %27 = load i32, ptr %retval, align 4
  ret i32 %27

eh.resume:                                        ; preds = %ehcleanup
  %exn = load ptr, ptr %exn.slot, align 8
  %sel = load i32, ptr %ehselector.slot, align 4
  %lpad.val = insertvalue { ptr, i32 } poison, ptr %exn, 0
  %lpad.val17 = insertvalue { ptr, i32 } %lpad.val, i32 %sel, 1
  resume { ptr, i32 } %lpad.val17
}