; Function Attrs: mustprogress uwtable
define noundef i32 @uloc_acceptLanguage_75(ptr noundef %result, i32 noundef %resultAvailable, ptr noundef %outResult, ptr noundef %acceptList, i32 noundef %acceptListCount, ptr noundef %availableLocales, ptr noundef %status) local_unnamed_addr #2 personality ptr @__gxx_personality_v0 {
entry:
  %converter = alloca %"class.(anonymous namespace)::LocaleFromTag", align 8
  %desiredLocales = alloca %"class.icu_75::Locale::ConvertingIterator", align 8
  %agg.tmp = alloca %"class.(anonymous namespace)::LocaleFromTag", align 8
  %0 = load i32, ptr %status, align 4
  %cmp.i = icmp slt i32 %0, 1
  br i1 %cmp.i, label %if.end, label %return

if.end:                                           ; preds = %entry
  %cmp = icmp eq ptr %result, null
  br i1 %cmp, label %cond.true, label %cond.false

cond.true:                                        ; preds = %if.end
  %cmp1.not = icmp eq i32 %resultAvailable, 0
  br i1 %cmp1.not, label %lor.lhs.false, label %if.then10

cond.false:                                       ; preds = %if.end
  %cmp2 = icmp slt i32 %resultAvailable, 0
  br i1 %cmp2, label %if.then10, label %lor.lhs.false

lor.lhs.false:                                    ; preds = %cond.false, %cond.true
  %cmp3 = icmp eq ptr %acceptList, null
  %cmp9.old = icmp eq ptr %availableLocales, null
  br i1 %cmp3, label %cond.true4, label %cond.false6

cond.true4:                                       ; preds = %lor.lhs.false
  %cmp5.not = icmp ne i32 %acceptListCount, 0
  %or.cond12 = or i1 %cmp5.not, %cmp9.old
  br i1 %or.cond12, label %if.then10, label %if.end11

cond.false6:                                      ; preds = %lor.lhs.false
  %cmp7 = icmp slt i32 %acceptListCount, 0
  %or.cond = or i1 %cmp7, %cmp9.old
  br i1 %or.cond, label %if.then10, label %if.end11

if.then10:                                        ; preds = %cond.false6, %cond.true4, %cond.false, %cond.true
  store i32 1, ptr %status, align 4
  br label %return

if.end11:                                         ; preds = %cond.true4, %cond.false6
  %call.i = tail call noundef nonnull align 8 dereferenceable(217) ptr @_ZN6icu_756Locale7getRootEv()
  call void @_ZN6icu_756LocaleC1ERKS0_(ptr noundef nonnull align 8 dereferenceable(217) %converter, ptr noundef nonnull align 8 dereferenceable(217) %call.i)
  invoke void @_ZN6icu_756LocaleC1ERKS0_(ptr noundef nonnull align 8 dereferenceable(217) %agg.tmp, ptr noundef nonnull align 8 dereferenceable(217) %converter)
          to label %invoke.cont unwind label %lpad

invoke.cont:                                      ; preds = %if.end11
  %idx.ext = zext nneg i32 %acceptListCount to i64
  %add.ptr = getelementptr inbounds ptr, ptr %acceptList, i64 %idx.ext
  store ptr getelementptr inbounds ({ [6 x ptr] }, ptr @_ZTVN6icu_756Locale18ConvertingIteratorIPPKcN12_GLOBAL__N_113LocaleFromTagEEE, i64 0, i32 0, i64 2), ptr %desiredLocales, align 8
  %it_.i = getelementptr inbounds i8, ptr %desiredLocales, i64 8
  store ptr %acceptList, ptr %it_.i, align 8
  %end_.i = getelementptr inbounds i8, ptr %desiredLocales, i64 16
  store ptr %add.ptr, ptr %end_.i, align 8
  %converter_.i = getelementptr inbounds i8, ptr %desiredLocales, i64 24
  invoke void @_ZN6icu_756LocaleC1ERKS0_(ptr noundef nonnull align 8 dereferenceable(217) %converter_.i, ptr noundef nonnull align 8 dereferenceable(217) %agg.tmp)
          to label %invoke.cont13 unwind label %lpad.i

lpad.i:                                           ; preds = %invoke.cont
  %1 = landingpad { ptr, i32 }
          cleanup
  call void @_ZN6icu_756Locale8IteratorD2Ev(ptr noundef nonnull align 8 dereferenceable(8) %desiredLocales) #15
  call void @_ZN6icu_756LocaleD1Ev(ptr noundef nonnull align 8 dereferenceable(217) %agg.tmp) #15
  br label %ehcleanup

invoke.cont13:                                    ; preds = %invoke.cont
  call void @_ZN6icu_756LocaleD1Ev(ptr noundef nonnull align 8 dereferenceable(217) %agg.tmp) #15
  %call16 = invoke fastcc noundef i32 @_ZN12_GLOBAL__N_114acceptLanguageER12UEnumerationRN6icu_756Locale8IteratorEPciP13UAcceptResultR10UErrorCode(ptr noundef nonnull align 1 %availableLocales, ptr noundef nonnull align 8 dereferenceable(8) %desiredLocales, ptr noundef %result, i32 noundef %resultAvailable, ptr noundef %outResult, ptr noundef nonnull align 4 dereferenceable(4) %status)
          to label %invoke.cont15 unwind label %lpad14

invoke.cont15:                                    ; preds = %invoke.cont13
  store ptr getelementptr inbounds ({ [6 x ptr] }, ptr @_ZTVN6icu_756Locale18ConvertingIteratorIPPKcN12_GLOBAL__N_113LocaleFromTagEEE, i64 0, i32 0, i64 2), ptr %desiredLocales, align 8
  call void @_ZN6icu_756LocaleD1Ev(ptr noundef nonnull align 8 dereferenceable(217) %converter_.i) #15
  call void @_ZN6icu_756Locale8IteratorD2Ev(ptr noundef nonnull align 8 dereferenceable(8) %desiredLocales) #15
  call void @_ZN6icu_756LocaleD1Ev(ptr noundef nonnull align 8 dereferenceable(217) %converter) #15
  br label %return

lpad:                                             ; preds = %if.end11
  %2 = landingpad { ptr, i32 }
          cleanup
  br label %ehcleanup

lpad14:                                           ; preds = %invoke.cont13
  %3 = landingpad { ptr, i32 }
          cleanup
  store ptr getelementptr inbounds ({ [6 x ptr] }, ptr @_ZTVN6icu_756Locale18ConvertingIteratorIPPKcN12_GLOBAL__N_113LocaleFromTagEEE, i64 0, i32 0, i64 2), ptr %desiredLocales, align 8
  call void @_ZN6icu_756LocaleD1Ev(ptr noundef nonnull align 8 dereferenceable(217) %converter_.i) #15
  call void @_ZN6icu_756Locale8IteratorD2Ev(ptr noundef nonnull align 8 dereferenceable(8) %desiredLocales) #15
  br label %ehcleanup

ehcleanup:                                        ; preds = %lpad14, %lpad.i, %lpad
  %.pn = phi { ptr, i32 } [ %3, %lpad14 ], [ %1, %lpad.i ], [ %2, %lpad ]
  call void @_ZN6icu_756LocaleD1Ev(ptr noundef nonnull align 8 dereferenceable(217) %converter) #15
  resume { ptr, i32 } %.pn

return:                                           ; preds = %entry, %invoke.cont15, %if.then10
  %retval.0 = phi i32 [ 0, %if.then10 ], [ %call16, %invoke.cont15 ], [ 0, %entry ]
  ret i32 %retval.0
}